; Function Attrs: nounwind uwtable
define internal range(i32 -1, 1) i32 @H5D__btree_idx_size(ptr noundef readonly captures(none) %0, ptr noundef writeonly captures(none) %1) #0 {
  %3 = alloca %struct.H5D_chunk_common_ud_t, align 8
  %4 = alloca %struct.H5B_info_t, align 8
  call void @llvm.lifetime.start.p0(i64 24, ptr nonnull %3) #15
  call void @llvm.lifetime.start.p0(i64 16, ptr nonnull %4) #15
  %5 = load i8, ptr @H5D_init_g, align 1, !tbaa !3, !range !7, !noundef !8
  %6 = trunc nuw i8 %5 to i1
  %7 = load i8, ptr @H5_libterm_g, align 1, !range !7
  %8 = trunc nuw i8 %7 to i1
  %9 = xor i1 %8, true
  %10 = select i1 %6, i1 true, i1 %9
  br i1 %10, label %11, label %29, !prof !9

11:                                               ; preds = %2
  %12 = getelementptr inbounds nuw i8, ptr %3, i64 16
  store i64 0, ptr %12, align 8
  %13 = getelementptr inbounds nuw i8, ptr %0, i64 16
  %14 = load ptr, ptr %13, align 8, !tbaa !19
  store ptr %14, ptr %3, align 8, !tbaa !22
  %15 = getelementptr inbounds nuw i8, ptr %0, i64 24
  %16 = load ptr, ptr %15, align 8, !tbaa !10
  %17 = getelementptr inbounds nuw i8, ptr %3, i64 8
  store ptr %16, ptr %17, align 8, !tbaa !25
  %18 = load ptr, ptr %0, align 8, !tbaa !18
  %19 = getelementptr inbounds nuw i8, ptr %16, i64 8
  %20 = load i64, ptr %19, align 8, !tbaa !26
  %21 = call i32 @H5B_get_info(ptr noundef %18, ptr noundef nonnull @H5B_BTREE, i64 noundef %20, ptr noundef nonnull %4, ptr noundef null, ptr noundef nonnull %3) #15
  %22 = icmp slt i32 %21, 0
  br i1 %22, label %23, label %27

23:                                               ; preds = %11
  %24 = load i64, ptr @H5E_BTREE_g, align 8, !tbaa !20
  %25 = load i64, ptr @H5E_CANTINIT_g, align 8, !tbaa !20
  %26 = call i32 (ptr, ptr, i32, i64, i64, ptr, ...) @H5E_printf_stack(ptr noundef nonnull @.str, ptr noundef nonnull @__func__.H5D__btree_idx_size, i32 noundef 1336, i64 noundef %24, i64 noundef %25, ptr noundef nonnull @.str.8) #15
  br label %29

27:                                               ; preds = %11
  %28 = load i64, ptr %4, align 8, !tbaa !38
  store i64 %28, ptr %1, align 8, !tbaa !20
  br label %29

29:                                               ; preds = %23, %27, %2
  %.0 = phi i32 [ -1, %23 ], [ 0, %27 ], [ 0, %2 ]
  call void @llvm.lifetime.end.p0(i64 16, ptr nonnull %4) #15
  call void @llvm.lifetime.end.p0(i64 24, ptr nonnull %3) #15
  ret i32 %.0
}